target datalayout = "e-m:e-p270:32:32-p271:32:32-p272:64:64-i64:64-i128:128-f80:128-n8:16:32:64-S128"
target triple = "x86_64-pc-linux-gnu"

@.str.2 = private unnamed_addr constant [5 x i8] c"    \00", align 1
@.str.4 = private unnamed_addr constant [2 x i8] c"\0A\00", align 1
@.str.5 = private unnamed_addr constant [8 x i8] c"0x%08x,\00", align 1

; Function Attrs: nounwind uwtable
define void @Iso_FindNumbers() #0 {
  %1 = alloca [1024 x i32], align 16
  %2 = alloca ptr, align 8
  %3 = alloca i32, align 4
  %4 = alloca i32, align 4
  call void @llvm.lifetime.start.p0(i64 4096, ptr %1) #11
  call void @llvm.lifetime.start.p0(i64 8, ptr %2) #11
  %5 = getelementptr inbounds [1024 x i32], ptr %1, i64 0, i64 0
  store ptr %5, ptr %2, align 8, !tbaa !3
  call void @llvm.lifetime.start.p0(i64 4, ptr %3) #11
  call void @llvm.lifetime.start.p0(i64 4, ptr %4) #11
  call void @srand(i32 noundef 111) #11
  store i32 0, ptr %3, align 4, !tbaa !8
  br label %6

6:                                                ; preds = %16, %0
  %7 = load i32, ptr %3, align 4, !tbaa !8
  %8 = icmp slt i32 %7, 4096
  br i1 %8, label %9, label %19

9:                                                ; preds = %6
  %10 = call i32 @rand() #11
  %11 = trunc i32 %10 to i8
  %12 = load ptr, ptr %2, align 8, !tbaa !3
  %13 = load i32, ptr %3, align 4, !tbaa !8
  %14 = sext i32 %13 to i64
  %15 = getelementptr inbounds i8, ptr %12, i64 %14
  store i8 %11, ptr %15, align 1, !tbaa !17
  br label %16

16:                                               ; preds = %9
  %17 = load i32, ptr %3, align 4, !tbaa !8
  %18 = add nsw i32 %17, 1
  store i32 %18, ptr %3, align 4, !tbaa !8
  br label %6, !llvm.loop !18

19:                                               ; preds = %6
  store i32 0, ptr %3, align 4, !tbaa !8
  br label %20

20:                                               ; preds = %42, %19
  %21 = load i32, ptr %3, align 4, !tbaa !8
  %22 = icmp slt i32 %21, 128
  br i1 %22, label %23, label %45

23:                                               ; preds = %20
  %24 = call i32 (ptr, ...) @printf(ptr noundef @.str.2)
  store i32 0, ptr %4, align 4, !tbaa !8
  br label %25

25:                                               ; preds = %37, %23
  %26 = load i32, ptr %4, align 4, !tbaa !8
  %27 = icmp slt i32 %26, 8
  br i1 %27, label %28, label %40

28:                                               ; preds = %25
  %29 = load i32, ptr %3, align 4, !tbaa !8
  %30 = mul nsw i32 %29, 8
  %31 = load i32, ptr %4, align 4, !tbaa !8
  %32 = add nsw i32 %30, %31
  %33 = sext i32 %32 to i64
  %34 = getelementptr inbounds [1024 x i32], ptr %1, i64 0, i64 %33
  %35 = load i32, ptr %34, align 4, !tbaa !8
  %36 = call i32 (ptr, ...) @printf(ptr noundef @.str.5, i32 noundef %35)
  br label %37

37:                                               ; preds = %28
  %38 = load i32, ptr %4, align 4, !tbaa !8
  %39 = add nsw i32 %38, 1
  store i32 %39, ptr %4, align 4, !tbaa !8
  br label %25, !llvm.loop !19

40:                                               ; preds = %25
  %41 = call i32 (ptr, ...) @printf(ptr noundef @.str.4)
  br label %42

42:                                               ; preds = %40
  %43 = load i32, ptr %3, align 4, !tbaa !8
  %44 = add nsw i32 %43, 1
  store i32 %44, ptr %3, align 4, !tbaa !8
  br label %20, !llvm.loop !20

45:                                               ; preds = %20
  call void @llvm.lifetime.end.p0(i64 4, ptr %4) #11
  call void @llvm.lifetime.end.p0(i64 4, ptr %3) #11
  call void @llvm.lifetime.end.p0(i64 8, ptr %2) #11
  call void @llvm.lifetime.end.p0(i64 4096, ptr %1) #11
  ret void
}