; Function Attrs: nounwind uwtable
define void @Iso_FindNumbers() local_unnamed_addr #0 {
  %1 = alloca [1024 x i32], align 16
  call void @llvm.lifetime.start.p0(i64 4096, ptr nonnull %1) #23
  tail call void @srand(i32 noundef 111) #23
  br label %2

2:                                                ; preds = %0, %2
  %indvars.iv = phi i64 [ 0, %0 ], [ %indvars.iv.next, %2 ]
  %3 = tail call i32 @rand() #23
  %4 = trunc i32 %3 to i8
  %5 = getelementptr inbounds nuw i8, ptr %1, i64 %indvars.iv
  store i8 %4, ptr %5, align 1, !tbaa !12
  %indvars.iv.next = add nuw nsw i64 %indvars.iv, 1
  %exitcond.not = icmp eq i64 %indvars.iv.next, 4096
  br i1 %exitcond.not, label %.preheader, label %2, !llvm.loop !13

.preheader:                                       ; preds = %2, %13
  %indvars.iv18 = phi i64 [ %indvars.iv.next19, %13 ], [ 0, %2 ]
  %6 = tail call i32 (ptr, ...) @printf(ptr noundef nonnull dereferenceable(1) @.str.2)
  %7 = shl nuw nsw i64 %indvars.iv18, 3
  br label %8

8:                                                ; preds = %.preheader, %8
  %indvars.iv14 = phi i64 [ 0, %.preheader ], [ %indvars.iv.next15, %8 ]
  %9 = add nuw nsw i64 %indvars.iv14, %7
  %10 = getelementptr inbounds nuw [1024 x i32], ptr %1, i64 0, i64 %9
  %11 = load i32, ptr %10, align 4, !tbaa !5
  %12 = tail call i32 (ptr, ...) @printf(ptr noundef nonnull dereferenceable(1) @.str.5, i32 noundef %11)
  %indvars.iv.next15 = add nuw nsw i64 %indvars.iv14, 1
  %exitcond17.not = icmp eq i64 %indvars.iv.next15, 8
  br i1 %exitcond17.not, label %13, label %8, !llvm.loop !14

13:                                               ; preds = %8
  %putchar = tail call i32 @putchar(i32 10)
  %indvars.iv.next19 = add nuw nsw i64 %indvars.iv18, 1
  %exitcond21.not = icmp eq i64 %indvars.iv.next19, 128
  br i1 %exitcond21.not, label %14, label %.preheader, !llvm.loop !15

14:                                               ; preds = %13
  call void @llvm.lifetime.end.p0(i64 4096, ptr nonnull %1) #23
  ret void
}